target datalayout = "e-m:e-p270:32:32-p271:32:32-p272:64:64-i64:64-i128:128-f80:128-n8:16:32:64-S128"
target triple = "x86_64-pc-linux-gnu"

%struct._cms_typehandler_struct = type { i32, ptr, ptr, ptr, ptr, ptr, i32 }
%struct.cmsVideoSignalType = type { i8, i8, i8, i8 }

; Function Attrs: nounwind uwtable
define internal ptr @Type_VideoSignal_Read(ptr noundef %0, ptr noundef %1, ptr noundef %2, i32 noundef %3) #0 {
  %5 = alloca ptr, align 8
  %6 = alloca ptr, align 8
  %7 = alloca ptr, align 8
  %8 = alloca ptr, align 8
  %9 = alloca i32, align 4
  %10 = alloca ptr, align 8
  store ptr %0, ptr %6, align 8
  store ptr %1, ptr %7, align 8
  store ptr %2, ptr %8, align 8
  store i32 %3, ptr %9, align 4
  store ptr null, ptr %10, align 8
  %11 = load i32, ptr %9, align 4
  %12 = icmp ne i32 %11, 8
  br i1 %12, label %13, label %14

13:                                               ; preds = %4
  store ptr null, ptr %5, align 8
  br label %67

14:                                               ; preds = %4
  %15 = load ptr, ptr %7, align 8
  %16 = call i32 @_cmsReadUInt32Number(ptr noundef %15, ptr noundef null)
  %17 = icmp ne i32 %16, 0
  br i1 %17, label %19, label %18

18:                                               ; preds = %14
  store ptr null, ptr %5, align 8
  br label %67

19:                                               ; preds = %14
  %20 = load ptr, ptr %6, align 8
  %21 = getelementptr inbounds %struct._cms_typehandler_struct, ptr %20, i32 0, i32 5
  %22 = load ptr, ptr %21, align 8
  %23 = call ptr @_cmsCalloc(ptr noundef %22, i32 noundef 1, i32 noundef 4)
  store ptr %23, ptr %10, align 8
  %24 = load ptr, ptr %10, align 8
  %25 = icmp eq ptr %24, null
  br i1 %25, label %26, label %27

26:                                               ; preds = %19
  store ptr null, ptr %5, align 8
  br label %67

27:                                               ; preds = %19
  %28 = load ptr, ptr %7, align 8
  %29 = load ptr, ptr %10, align 8
  %30 = getelementptr inbounds %struct.cmsVideoSignalType, ptr %29, i32 0, i32 0
  %31 = call i32 @_cmsReadUInt8Number(ptr noundef %28, ptr noundef %30)
  %32 = icmp ne i32 %31, 0
  br i1 %32, label %34, label %33

33:                                               ; preds = %27
  br label %58

34:                                               ; preds = %27
  %35 = load ptr, ptr %7, align 8
  %36 = load ptr, ptr %10, align 8
  %37 = getelementptr inbounds %struct.cmsVideoSignalType, ptr %36, i32 0, i32 1
  %38 = call i32 @_cmsReadUInt8Number(ptr noundef %35, ptr noundef %37)
  %39 = icmp ne i32 %38, 0
  br i1 %39, label %41, label %40

40:                                               ; preds = %34
  br label %58

41:                                               ; preds = %34
  %42 = load ptr, ptr %7, align 8
  %43 = load ptr, ptr %10, align 8
  %44 = getelementptr inbounds %struct.cmsVideoSignalType, ptr %43, i32 0, i32 2
  %45 = call i32 @_cmsReadUInt8Number(ptr noundef %42, ptr noundef %44)
  %46 = icmp ne i32 %45, 0
  br i1 %46, label %48, label %47

47:                                               ; preds = %41
  br label %58

48:                                               ; preds = %41
  %49 = load ptr, ptr %7, align 8
  %50 = load ptr, ptr %10, align 8
  %51 = getelementptr inbounds %struct.cmsVideoSignalType, ptr %50, i32 0, i32 3
  %52 = call i32 @_cmsReadUInt8Number(ptr noundef %49, ptr noundef %51)
  %53 = icmp ne i32 %52, 0
  br i1 %53, label %55, label %54

54:                                               ; preds = %48
  br label %58

55:                                               ; preds = %48
  %56 = load ptr, ptr %8, align 8
  store i32 1, ptr %56, align 4
  %57 = load ptr, ptr %10, align 8
  store ptr %57, ptr %5, align 8
  br label %67

58:                                               ; preds = %54, %47, %40, %33
  %59 = load ptr, ptr %10, align 8
  %60 = icmp ne ptr %59, null
  br i1 %60, label %61, label %66

61:                                               ; preds = %58
  %62 = load ptr, ptr %6, align 8
  %63 = getelementptr inbounds %struct._cms_typehandler_struct, ptr %62, i32 0, i32 5
  %64 = load ptr, ptr %63, align 8
  %65 = load ptr, ptr %10, align 8
  call void @_cmsFree(ptr noundef %64, ptr noundef %65)
  br label %66

66:                                               ; preds = %61, %58
  store ptr null, ptr %5, align 8
  br label %67

67:                                               ; preds = %66, %55, %26, %18, %13
  %68 = load ptr, ptr %5, align 8
  ret ptr %68
}