; Function Attrs: nounwind uwtable
define internal ptr @Type_VideoSignal_Read(ptr nocapture noundef readonly %0, ptr noundef %1, ptr nocapture noundef writeonly %2, i32 noundef %3) #0 {
  %.not = icmp eq i32 %3, 8
  br i1 %.not, label %5, label %26

5:                                                ; preds = %4
  %6 = tail call i32 @_cmsReadUInt32Number(ptr noundef %1, ptr noundef null) #13
  %.not18 = icmp eq i32 %6, 0
  br i1 %.not18, label %26, label %7

7:                                                ; preds = %5
  %8 = getelementptr inbounds i8, ptr %0, i64 40
  %9 = load ptr, ptr %8, align 8
  %10 = tail call ptr @_cmsCalloc(ptr noundef %9, i32 noundef 1, i32 noundef 4) #13
  %11 = icmp eq ptr %10, null
  br i1 %11, label %26, label %12

12:                                               ; preds = %7
  %13 = tail call i32 @_cmsReadUInt8Number(ptr noundef %1, ptr noundef nonnull %10) #13
  %.not19 = icmp eq i32 %13, 0
  br i1 %.not19, label %24, label %14

14:                                               ; preds = %12
  %15 = getelementptr inbounds i8, ptr %10, i64 1
  %16 = tail call i32 @_cmsReadUInt8Number(ptr noundef %1, ptr noundef nonnull %15) #13
  %.not20 = icmp eq i32 %16, 0
  br i1 %.not20, label %24, label %17

17:                                               ; preds = %14
  %18 = getelementptr inbounds i8, ptr %10, i64 2
  %19 = tail call i32 @_cmsReadUInt8Number(ptr noundef %1, ptr noundef nonnull %18) #13
  %.not21 = icmp eq i32 %19, 0
  br i1 %.not21, label %24, label %20

20:                                               ; preds = %17
  %21 = getelementptr inbounds i8, ptr %10, i64 3
  %22 = tail call i32 @_cmsReadUInt8Number(ptr noundef %1, ptr noundef nonnull %21) #13
  %.not22 = icmp eq i32 %22, 0
  br i1 %.not22, label %24, label %23

23:                                               ; preds = %20
  store i32 1, ptr %2, align 4
  br label %26

24:                                               ; preds = %12, %14, %17, %20
  %25 = load ptr, ptr %8, align 8
  tail call void @_cmsFree(ptr noundef %25, ptr noundef nonnull %10) #13
  br label %26

26:                                               ; preds = %7, %5, %4, %24, %23
  %.0 = phi ptr [ %10, %23 ], [ null, %24 ], [ null, %4 ], [ null, %5 ], [ null, %7 ]
  ret ptr %.0
}